Certificate:
    Data:
        Version: 3 (0x2)
        Serial Number: 1 (0x1)
        Signature Algorithm: sha1WithRSAEncryption
        Issuer: C=SE, ST=Bogus State, O=Bogus Ltd, OU=Bogus, CN=My Bogus CA for testing libradsec
        Validity
            Not Before: Mar 25 12:22:42 2011 GMT
            Not After : Feb 16 12:22:42 2024 GMT
        Subject: C=SE, ST=Bogus State, O=Bogus Ltd, OU=Bogus, CN=My Bogus CA for testing libradsec
        Subject Public Key Info:
            Public Key Algorithm: rsaEncryption
            RSA Public Key: (512 bit)
                Modulus (512 bit):
                    00:aa:27:7d:3b:29:12:1e:39:8d:9f:43:ad:ae:83:
                    6f:22:88:08:07:92:b9:1d:d4:88:5f:58:b9:76:ec:
                    4a:e9:c9:6a:73:ed:70:66:5e:6f:dc:02:15:9f:dd:
                    7a:5f:cc:3b:98:8a:27:b1:f5:98:fb:6b:c7:ab:5e:
                    5e:ea:3c:c4:5f
                Exponent: 65537 (0x10001)
        X509v3 extensions:
            X509v3 Subject Key Identifier: 
                5A:9B:BA:E8:A6:9B:E9:78:73:1E:0B:83:00:49:94:46:13:9C:1C:89
            X509v3 Authority Key Identifier: 
                keyid:5A:9B:BA:E8:A6:9B:E9:78:73:1E:0B:83:00:49:94:46:13:9C:1C:89
                DirName:/C=SE/ST=Bogus State/O=Bogus Ltd/OU=Bogus/CN=My Bogus CA for testing libradsec
                serial:01

            X509v3 Basic Constraints: 
                CA:TRUE
    Signature Algorithm: sha1WithRSAEncryption
        18:a2:21:92:a6:2a:e0:a4:4d:57:c0:89:94:5c:b0:26:64:f8:
        b1:0c:97:f8:cd:d5:af:c8:38:3e:a3:68:47:82:e1:a6:2e:63:
        97:4d:c0:79:f5:9a:ff:38:67:10:d6:22:61:44:89:84:50:85:
        ee:38:87:6d:4f:06:10:36:33:39
-----BEGIN CERTIFICATE-----
MIICqDCCAlKgAwIBAgIBATANBgkqhkiG9w0BAQUFADBzMQswCQYDVQQGEwJTRTEU
MBIGA1UECBMLQm9ndXMgU3RhdGUxEjAQBgNVBAoTCUJvZ3VzIEx0ZDEOMAwGA1UE
CxMFQm9ndXMxKjAoBgNVBAMTIU15IEJvZ3VzIENBIGZvciB0ZXN0aW5nIGxpYnJh
ZHNlYzAeFw0xMTAzMjUxMjIyNDJaFw0yNDAyMTYxMjIyNDJaMHMxCzAJBgNVBAYT
AlNFMRQwEgYDVQQIEwtCb2d1cyBTdGF0ZTESMBAGA1UEChMJQm9ndXMgTHRkMQ4w
DAYDVQQLEwVCb2d1czEqMCgGA1UEAxMhTXkgQm9ndXMgQ0EgZm9yIHRlc3Rpbmcg
bGlicmFkc2VjMFwwDQYJKoZIhvcNAQEBBQADSwAwSAJBAKonfTspEh45jZ9Dra6D
byKICAeSuR3UiF9YuXbsSunJanPtcGZeb9wCFZ/del/MO5iKJ7H1mPtrx6teXuo8
xF8CAwEAAaOB0DCBzTAdBgNVHQ4EFgQUWpu66Kab6XhzHguDAEmURhOcHIkwgZ0G
A1UdIwSBlTCBkoAUWpu66Kab6XhzHguDAEmURhOcHImhd6R1MHMxCzAJBgNVBAYT
AlNFMRQwEgYDVQQIEwtCb2d1cyBTdGF0ZTESMBAGA1UEChMJQm9ndXMgTHRkMQ4w
DAYDVQQLEwVCb2d1czEqMCgGA1UEAxMhTXkgQm9ndXMgQ0EgZm9yIHRlc3Rpbmcg
bGlicmFkc2VjggEBMAwGA1UdEwQFMAMBAf8wDQYJKoZIhvcNAQEFBQADQQAYoiGS
pirgpE1XwImUXLAmZPixDJf4zdWvyDg+o2hHguGmLmOXTcB59Zr/OGcQ1iJhRImE
UIXuOIdtTwYQNjM5
-----END CERTIFICATE-----
