Certificate:
    Data:
        Version: 3 (0x2)
        Serial Number: 1 (0x1)
    Signature Algorithm: sha1WithRSAEncryption
        Issuer: C=AU, ST=Some-State, O=Internet Widgits Pty Ltd, CN=ca
        Validity
            Not Before: Sep 12 11:54:49 2012 GMT
            Not After : Aug  6 11:54:49 2025 GMT
        Subject: C=AU, ST=Some-State, O=Internet Widgits Pty Ltd, CN=ca
        Subject Public Key Info:
            Public Key Algorithm: rsaEncryption
                Public-Key: (512 bit)
                Modulus:
                    00:eb:9e:52:bf:1a:7c:32:63:9f:96:80:71:f1:98:
                    87:90:97:f1:7a:4a:81:6d:66:7e:8e:7c:50:5f:f9:
                    6e:94:1a:b0:7b:46:87:b5:9e:23:48:04:ad:f3:55:
                    a1:f9:31:50:a1:10:ab:ca:ba:70:ac:58:95:4e:9d:
                    3a:2b:52:36:df
                Exponent: 65537 (0x10001)
        X509v3 extensions:
            X509v3 Subject Key Identifier: 
                11:57:40:0B:F0:33:2F:AE:C2:DA:A4:3A:00:BA:E9:34:B3:75:20:05
            X509v3 Authority Key Identifier: 
                keyid:11:57:40:0B:F0:33:2F:AE:C2:DA:A4:3A:00:BA:E9:34:B3:75:20:05

            X509v3 Basic Constraints: 
                CA:TRUE
    Signature Algorithm: sha1WithRSAEncryption
         15:12:3b:79:3d:61:d2:c7:d2:a8:0c:df:82:ea:66:76:26:cb:
         ab:b5:83:a3:52:a0:23:1a:a9:92:8e:93:41:f7:6c:3f:8a:2c:
         bd:32:3d:70:3f:b6:fd:f2:37:50:0a:66:8c:1c:44:bf:ef:50:
         24:33:bd:48:47:04:ee:8c:61:88
-----BEGIN CERTIFICATE-----
MIIB5TCCAY+gAwIBAgIBATANBgkqhkiG9w0BAQUFADBSMQswCQYDVQQGEwJBVTET
MBEGA1UECAwKU29tZS1TdGF0ZTEhMB8GA1UECgwYSW50ZXJuZXQgV2lkZ2l0cyBQ
dHkgTHRkMQswCQYDVQQDDAJjYTAeFw0xMjA5MTIxMTU0NDlaFw0yNTA4MDYxMTU0
NDlaMFIxCzAJBgNVBAYTAkFVMRMwEQYDVQQIDApTb21lLVN0YXRlMSEwHwYDVQQK
DBhJbnRlcm5ldCBXaWRnaXRzIFB0eSBMdGQxCzAJBgNVBAMMAmNhMFwwDQYJKoZI
hvcNAQEBBQADSwAwSAJBAOueUr8afDJjn5aAcfGYh5CX8XpKgW1mfo58UF/5bpQa
sHtGh7WeI0gErfNVofkxUKEQq8q6cKxYlU6dOitSNt8CAwEAAaNQME4wHQYDVR0O
BBYEFBFXQAvwMy+uwtqkOgC66TSzdSAFMB8GA1UdIwQYMBaAFBFXQAvwMy+uwtqk
OgC66TSzdSAFMAwGA1UdEwQFMAMBAf8wDQYJKoZIhvcNAQEFBQADQQAVEjt5PWHS
x9KoDN+C6mZ2JsurtYOjUqAjGqmSjpNB92w/iiy9Mj1wP7b98jdQCmaMHES/71Ak
M71IRwTujGGI
-----END CERTIFICATE-----
