Certificate:
    Data:
        Version: 3 (0x2)
        Serial Number: 2 (0x2)
    Signature Algorithm: sha1WithRSAEncryption
        Issuer: C=AU, ST=Some-State, O=Internet Widgits Pty Ltd, CN=ca
        Validity
            Not Before: Sep 12 11:54:57 2012 GMT
            Not After : Aug  6 11:54:57 2025 GMT
        Subject: C=AU, ST=Some-State, O=Internet Widgits Pty Ltd, CN=srv1
        Subject Public Key Info:
            Public Key Algorithm: rsaEncryption
                Public-Key: (512 bit)
                Modulus:
                    00:ac:21:78:6f:cb:1c:10:c2:71:7b:72:03:e3:4b:
                    b2:c7:f6:63:3f:69:d3:d3:48:e0:90:16:0f:5a:44:
                    f5:9c:ed:b9:6b:72:be:11:6e:26:09:32:0c:51:25:
                    10:35:fe:a0:33:fe:cf:90:9f:2c:8b:3a:c5:98:86:
                    c2:a9:5c:ba:a7
                Exponent: 65537 (0x10001)
        X509v3 extensions:
            X509v3 Basic Constraints: 
                CA:FALSE
            Netscape Comment: 
                OpenSSL Generated Certificate
            X509v3 Subject Key Identifier: 
                08:13:6F:A0:93:47:21:31:9F:02:79:A5:CF:24:4A:D1:0B:A7:10:09
            X509v3 Authority Key Identifier: 
                keyid:11:57:40:0B:F0:33:2F:AE:C2:DA:A4:3A:00:BA:E9:34:B3:75:20:05

    Signature Algorithm: sha1WithRSAEncryption
         2c:7e:61:65:48:cc:46:50:58:cc:9d:1b:b2:e7:2d:2b:72:e2:
         a1:2f:2c:14:35:4d:b8:42:87:66:57:77:c4:02:17:fa:3c:db:
         83:3f:89:37:ae:f8:e9:00:fe:96:d8:4b:80:63:db:08:7a:c6:
         e1:c7:59:ec:d9:76:4a:be:1a:19
-----BEGIN CERTIFICATE-----
MIICEjCCAbygAwIBAgIBAjANBgkqhkiG9w0BAQUFADBSMQswCQYDVQQGEwJBVTET
MBEGA1UECAwKU29tZS1TdGF0ZTEhMB8GA1UECgwYSW50ZXJuZXQgV2lkZ2l0cyBQ
dHkgTHRkMQswCQYDVQQDDAJjYTAeFw0xMjA5MTIxMTU0NTdaFw0yNTA4MDYxMTU0
NTdaMFQxCzAJBgNVBAYTAkFVMRMwEQYDVQQIDApTb21lLVN0YXRlMSEwHwYDVQQK
DBhJbnRlcm5ldCBXaWRnaXRzIFB0eSBMdGQxDTALBgNVBAMMBHNydjEwXDANBgkq
hkiG9w0BAQEFAANLADBIAkEArCF4b8scEMJxe3ID40uyx/ZjP2nT00jgkBYPWkT1
nO25a3K+EW4mCTIMUSUQNf6gM/7PkJ8sizrFmIbCqVy6pwIDAQABo3sweTAJBgNV
HRMEAjAAMCwGCWCGSAGG+EIBDQQfFh1PcGVuU1NMIEdlbmVyYXRlZCBDZXJ0aWZp
Y2F0ZTAdBgNVHQ4EFgQUCBNvoJNHITGfAnmlzyRK0QunEAkwHwYDVR0jBBgwFoAU
EVdAC/AzL67C2qQ6ALrpNLN1IAUwDQYJKoZIhvcNAQEFBQADQQAsfmFlSMxGUFjM
nRuy5y0rcuKhLywUNU24QodmV3fEAhf6PNuDP4k3rvjpAP6W2EuAY9sIesbhx1ns
2XZKvhoZ
-----END CERTIFICATE-----
