Certificate:
    Data:
        Version: 3 (0x2)
        Serial Number: 2 (0x2)
        Signature Algorithm: sha1WithRSAEncryption
        Issuer: C=SE, ST=Bogus State, O=Bogus Ltd, OU=Bogus, CN=My Bogus CA for testing libradsec
        Validity
            Not Before: Mar 25 12:35:20 2011 GMT
            Not After : Feb 16 12:35:20 2024 GMT
        Subject: C=SE, ST=Bogus State, O=Bogus Ltd, OU=Bogus, CN=My Bogus Certificate for testing libradsec
        Subject Public Key Info:
            Public Key Algorithm: rsaEncryption
            RSA Public Key: (512 bit)
                Modulus (512 bit):
                    00:c3:e5:16:74:47:84:bb:26:bc:50:fe:dc:b5:70:
                    21:ad:21:b6:ff:cb:ac:b2:24:9e:08:75:39:5d:ba:
                    f4:b1:59:f6:a8:14:02:62:c3:68:6d:f2:08:9b:fe:
                    66:5c:72:92:16:04:60:b5:08:83:66:28:3b:46:f0:
                    cf:95:37:b7:d7
                Exponent: 65537 (0x10001)
        X509v3 extensions:
            X509v3 Basic Constraints: 
                CA:FALSE
            Netscape Comment: 
                OpenSSL Generated Certificate
            X509v3 Subject Key Identifier: 
                89:23:42:95:2B:52:A4:77:FC:5E:59:CA:8D:E0:30:AF:D3:B5:C3:C2
            X509v3 Authority Key Identifier: 
                keyid:5A:9B:BA:E8:A6:9B:E9:78:73:1E:0B:83:00:49:94:46:13:9C:1C:89

    Signature Algorithm: sha1WithRSAEncryption
        60:71:c8:00:ba:88:67:97:75:97:0a:f7:77:70:7d:dc:91:24:
        35:5b:ce:5b:cf:24:00:9b:d1:8f:f0:63:58:76:24:f3:67:06:
        a3:ad:e3:43:13:30:d0:d4:62:64:d5:78:4a:aa:9c:13:bc:ea:
        7c:99:8e:5f:b6:c6:5f:11:0d:c9
-----BEGIN CERTIFICATE-----
MIICWzCCAgWgAwIBAgIBAjANBgkqhkiG9w0BAQUFADBzMQswCQYDVQQGEwJTRTEU
MBIGA1UECBMLQm9ndXMgU3RhdGUxEjAQBgNVBAoTCUJvZ3VzIEx0ZDEOMAwGA1UE
CxMFQm9ndXMxKjAoBgNVBAMTIU15IEJvZ3VzIENBIGZvciB0ZXN0aW5nIGxpYnJh
ZHNlYzAeFw0xMTAzMjUxMjM1MjBaFw0yNDAyMTYxMjM1MjBaMHwxCzAJBgNVBAYT
AlNFMRQwEgYDVQQIEwtCb2d1cyBTdGF0ZTESMBAGA1UEChMJQm9ndXMgTHRkMQ4w
DAYDVQQLEwVCb2d1czEzMDEGA1UEAxMqTXkgQm9ndXMgQ2VydGlmaWNhdGUgZm9y
IHRlc3RpbmcgbGlicmFkc2VjMFwwDQYJKoZIhvcNAQEBBQADSwAwSAJBAMPlFnRH
hLsmvFD+3LVwIa0htv/LrLIkngh1OV269LFZ9qgUAmLDaG3yCJv+ZlxykhYEYLUI
g2YoO0bwz5U3t9cCAwEAAaN7MHkwCQYDVR0TBAIwADAsBglghkgBhvhCAQ0EHxYd
T3BlblNTTCBHZW5lcmF0ZWQgQ2VydGlmaWNhdGUwHQYDVR0OBBYEFIkjQpUrUqR3
/F5Zyo3gMK/TtcPCMB8GA1UdIwQYMBaAFFqbuuimm+l4cx4LgwBJlEYTnByJMA0G
CSqGSIb3DQEBBQUAA0EAYHHIALqIZ5d1lwr3d3B93JEkNVvOW88kAJvRj/BjWHYk
82cGo63jQxMw0NRiZNV4SqqcE7zqfJmOX7bGXxENyQ==
-----END CERTIFICATE-----
