Certificate:
    Data:
        Version: 3 (0x2)
        Serial Number: 3 (0x3)
        Signature Algorithm: sha1WithRSAEncryption
        Issuer: C=SE, ST=Bogus State, O=Bogus Ltd, OU=Bogus, CN=My Bogus CA for testing libradsec
        Validity
            Not Before: Mar 25 15:00:52 2011 GMT
            Not After : Feb 16 15:00:52 2024 GMT
        Subject: C=SE, ST=Bogus State, O=Bogus Ltd, OU=Bogus, CN=My Bogus Client Certificate for testing libradsec
        Subject Public Key Info:
            Public Key Algorithm: rsaEncryption
            RSA Public Key: (512 bit)
                Modulus (512 bit):
                    00:ae:ba:06:81:e2:7c:a8:ee:4e:fa:46:a3:dd:c7:
                    d4:f8:33:80:c0:43:09:bd:a7:7d:59:4a:c8:af:3f:
                    07:54:72:4c:b1:ac:2e:53:5a:c0:b6:6c:06:55:97:
                    55:36:cb:fc:7d:5d:c1:c1:97:95:52:a7:a8:da:b0:
                    b3:3a:0d:b7:87
                Exponent: 65537 (0x10001)
        X509v3 extensions:
            X509v3 Basic Constraints: 
                CA:FALSE
            Netscape Comment: 
                OpenSSL Generated Certificate
            X509v3 Subject Key Identifier: 
                70:83:4E:39:98:5A:B6:8E:C7:18:95:57:E9:44:BC:26:0F:78:95:45
            X509v3 Authority Key Identifier: 
                keyid:5A:9B:BA:E8:A6:9B:E9:78:73:1E:0B:83:00:49:94:46:13:9C:1C:89

    Signature Algorithm: sha1WithRSAEncryption
        72:ea:52:71:bf:6e:9c:de:0d:3a:e7:18:ed:21:46:37:3a:d4:
        7f:21:ff:21:6a:09:fd:4e:fa:85:0a:fb:46:b5:2d:53:3a:25:
        2d:40:44:ee:48:81:9d:6d:5e:cf:20:aa:a1:e8:a7:22:d5:ae:
        58:35:92:ea:bb:b5:a6:f7:29:5c
-----BEGIN CERTIFICATE-----
MIICYzCCAg2gAwIBAgIBAzANBgkqhkiG9w0BAQUFADBzMQswCQYDVQQGEwJTRTEU
MBIGA1UECBMLQm9ndXMgU3RhdGUxEjAQBgNVBAoTCUJvZ3VzIEx0ZDEOMAwGA1UE
CxMFQm9ndXMxKjAoBgNVBAMTIU15IEJvZ3VzIENBIGZvciB0ZXN0aW5nIGxpYnJh
ZHNlYzAeFw0xMTAzMjUxNTAwNTJaFw0yNDAyMTYxNTAwNTJaMIGDMQswCQYDVQQG
EwJTRTEUMBIGA1UECBMLQm9ndXMgU3RhdGUxEjAQBgNVBAoTCUJvZ3VzIEx0ZDEO
MAwGA1UECxMFQm9ndXMxOjA4BgNVBAMTMU15IEJvZ3VzIENsaWVudCBDZXJ0aWZp
Y2F0ZSBmb3IgdGVzdGluZyBsaWJyYWRzZWMwXDANBgkqhkiG9w0BAQEFAANLADBI
AkEArroGgeJ8qO5O+kaj3cfU+DOAwEMJvad9WUrIrz8HVHJMsawuU1rAtmwGVZdV
Nsv8fV3BwZeVUqeo2rCzOg23hwIDAQABo3sweTAJBgNVHRMEAjAAMCwGCWCGSAGG
+EIBDQQfFh1PcGVuU1NMIEdlbmVyYXRlZCBDZXJ0aWZpY2F0ZTAdBgNVHQ4EFgQU
cINOOZhato7HGJVX6US8Jg94lUUwHwYDVR0jBBgwFoAUWpu66Kab6XhzHguDAEmU
RhOcHIkwDQYJKoZIhvcNAQEFBQADQQBy6lJxv26c3g065xjtIUY3OtR/If8hagn9
TvqFCvtGtS1TOiUtQETuSIGdbV7PIKqh6Kci1a5YNZLqu7Wm9ylc
-----END CERTIFICATE-----
