Certificate:
    Data:
        Version: 3 (0x2)
        Serial Number: 3 (0x3)
    Signature Algorithm: sha1WithRSAEncryption
        Issuer: C=AU, ST=Some-State, O=Internet Widgits Pty Ltd, CN=ca
        Validity
            Not Before: Sep 12 11:55:04 2012 GMT
            Not After : Aug  6 11:55:04 2025 GMT
        Subject: C=AU, ST=Some-State, O=Internet Widgits Pty Ltd, CN=cli1
        Subject Public Key Info:
            Public Key Algorithm: rsaEncryption
                Public-Key: (512 bit)
                Modulus:
                    00:99:7b:86:e0:46:de:f1:69:10:97:f8:4e:78:c8:
                    ee:c2:c8:65:64:90:72:dd:51:4f:c6:58:78:49:07:
                    61:b9:ed:0a:77:7b:d2:6a:c3:49:e5:91:6c:bf:78:
                    d0:fc:8a:5c:80:1a:b0:03:28:b2:ea:e8:c8:a0:b6:
                    be:a1:42:30:5d
                Exponent: 65537 (0x10001)
        X509v3 extensions:
            X509v3 Basic Constraints: 
                CA:FALSE
            Netscape Comment: 
                OpenSSL Generated Certificate
            X509v3 Subject Key Identifier: 
                10:17:90:80:D8:B0:7E:91:91:13:32:27:8C:EF:A6:DE:9F:C1:C4:A7
            X509v3 Authority Key Identifier: 
                keyid:11:57:40:0B:F0:33:2F:AE:C2:DA:A4:3A:00:BA:E9:34:B3:75:20:05

    Signature Algorithm: sha1WithRSAEncryption
         b1:08:87:88:7d:90:78:01:da:4a:e7:be:82:22:3f:58:07:f7:
         46:a9:9a:42:a4:88:d9:b8:6a:69:bf:cb:d0:39:2d:c9:49:06:
         fa:31:80:66:17:32:cc:e8:ae:36:9c:c1:d5:ae:6d:3c:eb:72:
         77:55:92:fa:ab:f5:a3:bc:19:2d
-----BEGIN CERTIFICATE-----
MIICEjCCAbygAwIBAgIBAzANBgkqhkiG9w0BAQUFADBSMQswCQYDVQQGEwJBVTET
MBEGA1UECAwKU29tZS1TdGF0ZTEhMB8GA1UECgwYSW50ZXJuZXQgV2lkZ2l0cyBQ
dHkgTHRkMQswCQYDVQQDDAJjYTAeFw0xMjA5MTIxMTU1MDRaFw0yNTA4MDYxMTU1
MDRaMFQxCzAJBgNVBAYTAkFVMRMwEQYDVQQIDApTb21lLVN0YXRlMSEwHwYDVQQK
DBhJbnRlcm5ldCBXaWRnaXRzIFB0eSBMdGQxDTALBgNVBAMMBGNsaTEwXDANBgkq
hkiG9w0BAQEFAANLADBIAkEAmXuG4Ebe8WkQl/hOeMjuwshlZJBy3VFPxlh4SQdh
ue0Kd3vSasNJ5ZFsv3jQ/IpcgBqwAyiy6ujIoLa+oUIwXQIDAQABo3sweTAJBgNV
HRMEAjAAMCwGCWCGSAGG+EIBDQQfFh1PcGVuU1NMIEdlbmVyYXRlZCBDZXJ0aWZp
Y2F0ZTAdBgNVHQ4EFgQUEBeQgNiwfpGREzInjO+m3p/BxKcwHwYDVR0jBBgwFoAU
EVdAC/AzL67C2qQ6ALrpNLN1IAUwDQYJKoZIhvcNAQEFBQADQQCxCIeIfZB4AdpK
576CIj9YB/dGqZpCpIjZuGppv8vQOS3JSQb6MYBmFzLM6K42nMHVrm0863J3VZL6
q/WjvBkt
-----END CERTIFICATE-----
